; Function Attrs: nounwind uwtable
define ptr @l_Lean_PersistentHashMap_foldlMAux___at_Lean_SSet_fold___spec__13___rarg(ptr noundef %0, ptr noundef %1, ptr noundef %2) local_unnamed_addr #0 {
  %4 = ptrtoint ptr %1 to i64
  %5 = and i64 %4, 1
  %.not.i45 = icmp eq i64 %5, 0
  br i1 %.not.i45, label %9, label %6

6:                                                ; preds = %3
  %7 = lshr i64 %4, 1
  %8 = trunc i64 %7 to i32
  br label %lean_obj_tag.exit

9:                                                ; preds = %3
  %10 = getelementptr i8, ptr %1, i64 4
  %.val.i = load i32, ptr %10, align 4
  %11 = lshr i32 %.val.i, 24
  br label %lean_obj_tag.exit

lean_obj_tag.exit:                                ; preds = %6, %9
  %.0.i46 = phi i32 [ %8, %6 ], [ %11, %9 ]
  %12 = icmp eq i32 %.0.i46, 0
  %13 = getelementptr inbounds nuw i8, ptr %1, i64 8
  %14 = load ptr, ptr %13, align 8, !tbaa !9
  br i1 %12, label %lean_nat_lt.exit, label %26

lean_nat_lt.exit:                                 ; preds = %lean_obj_tag.exit
  %15 = getelementptr i8, ptr %14, i64 8
  %.val = load i64, ptr %15, align 8, !tbaa !14
  %.mask = and i64 %.val, 9223372036854775807
  %.not = icmp eq i64 %.mask, 0
  br i1 %.not, label %lean_dec.exit34, label %lean_dec.exit

lean_dec.exit34:                                  ; preds = %lean_nat_lt.exit
  %16 = ptrtoint ptr %0 to i64
  %17 = and i64 %16, 1
  %.not48 = icmp eq i64 %17, 0
  br i1 %.not48, label %18, label %lean_dec.exit33

18:                                               ; preds = %lean_dec.exit34
  %19 = load i32, ptr %0, align 4, !tbaa !4
  %20 = icmp sgt i32 %19, 1
  br i1 %20, label %21, label %23, !prof !13

21:                                               ; preds = %18
  %22 = add nsw i32 %19, -1
  store i32 %22, ptr %0, align 4, !tbaa !4
  br label %lean_dec.exit33

23:                                               ; preds = %18
  %.not.i35 = icmp eq i32 %19, 0
  br i1 %.not.i35, label %lean_dec.exit33, label %24

24:                                               ; preds = %23
  tail call void @lean_dec_ref_cold(ptr noundef nonnull %0) #3
  br label %lean_dec.exit33

lean_dec.exit:                                    ; preds = %lean_nat_lt.exit
  %25 = tail call ptr @l_Array_foldlMUnsafe_fold___at_Lean_SSet_fold___spec__14___rarg(ptr noundef %0, ptr noundef nonnull %14, i64 noundef 0, i64 noundef %.mask, ptr noundef %2)
  br label %lean_dec.exit33

26:                                               ; preds = %lean_obj_tag.exit
  %27 = getelementptr inbounds nuw i8, ptr %1, i64 16
  %28 = load ptr, ptr %27, align 8, !tbaa !9
  %29 = tail call ptr @l_Lean_PersistentHashMap_foldlMAux_traverse___at_Lean_SSet_fold___spec__15___rarg(ptr noundef %0, ptr noundef %14, ptr noundef %28, ptr nonnull poison, ptr noundef nonnull inttoptr (i64 1 to ptr), ptr noundef %2)
  br label %lean_dec.exit33

lean_dec.exit33:                                  ; preds = %lean_dec.exit34, %21, %23, %24, %lean_dec.exit, %26
  %.2 = phi ptr [ %29, %26 ], [ %25, %lean_dec.exit ], [ %2, %24 ], [ %2, %23 ], [ %2, %21 ], [ %2, %lean_dec.exit34 ]
  ret ptr %.2
}